Certificate:
    Data:
        Version: 3 (0x2)
        Serial Number: 2 (0x2)
        Signature Algorithm: md5WithRSAEncryption
        Issuer: CN=MedCommons Certificate Authority/emailAddress=ca@medcommons.net, O=MedCommons, OU=Certification & Security, L=Watertown, ST=Massachusetts, C=US
        Validity
            Not Before: Oct 25 13:33:58 2005 GMT
            Not After : Oct 24 13:33:58 2008 GMT
        Subject: emailAddress=chad@thecannells.org, CN=Chad Cannell (IE), C=US, ST=North Carolina, L=Matthews, O=MedCommons, OU=Operations
        Subject Public Key Info:
            Public Key Algorithm: rsaEncryption
            RSA Public Key: (1024 bit)
                Modulus (1024 bit):
                    00:e5:78:31:9f:b1:85:1d:a8:5b:02:ab:3d:e5:76:
                    b5:4e:e5:63:c4:13:66:a9:73:cc:32:7a:60:bd:1a:
                    74:e8:50:dd:5e:87:5d:ac:f3:31:b4:7c:5b:fb:d0:
                    66:ac:23:3c:b5:17:6e:cc:14:f6:40:e6:0b:0b:2c:
                    0e:6d:0a:52:81:32:da:d9:ae:04:3a:b4:e6:ec:35:
                    70:54:fb:f1:8d:37:8b:fa:3b:77:70:f5:59:65:0f:
                    6d:5e:19:23:c3:b4:99:00:dd:9e:1f:33:09:5e:9a:
                    a5:d3:c2:39:4b:d0:1b:be:61:47:a2:ed:7c:f8:a6:
                    90:5d:b4:30:ed:b1:5f:15:2d
                Exponent: 65537 (0x10001)
    Signature Algorithm: md5WithRSAEncryption
        18:e1:b1:18:ef:ff:a3:73:11:54:ec:d1:7b:1d:86:56:85:6b:
        7e:52:81:cd:a3:28:54:9a:7c:69:dd:ea:58:be:f3:49:12:fd:
        76:76:b1:9e:c0:31:2a:91:a2:7b:80:1f:b3:05:dd:bf:7c:85:
        39:7a:c1:c1:2f:d6:8f:1a:80:70:a1:b6:6b:eb:a7:83:fc:a4:
        17:b9:92:fe:52:ce:65:e6:12:5f:e5:18:20:5c:86:00:38:07:
        93:05:73:c0:4d:ec:76:6d:1c:8c:95:e6:47:5b:e0:1c:0e:da:
        8a:59:bc:b5:f4:2b:5e:d7:06:3a:cf:3b:95:e0:5c:94:61:f8:
        15:c6
-----BEGIN CERTIFICATE-----
MIIC2DCCAkGgAwIBAgIBAjANBgkqhkiG9w0BAQQFADCBvjEpMCcGA1UEAxMgTWVk
Q29tbW9ucyBDZXJ0aWZpY2F0ZSBBdXRob3JpdHkxIDAeBgkqhkiG9w0BCQEWEWNh
QG1lZGNvbW1vbnMubmV0MRMwEQYDVQQKEwpNZWRDb21tb25zMSEwHwYDVQQLFBhD
ZXJ0aWZpY2F0aW9uICYgU2VjdXJpdHkxEjAQBgNVBAcTCVdhdGVydG93bjEWMBQG
A1UECBMNTWFzc2FjaHVzZXR0czELMAkGA1UEBhMCVVMwHhcNMDUxMDI1MTMzMzU4
WhcNMDgxMDI0MTMzMzU4WjCBpDEjMCEGCSqGSIb3DQEJARYUY2hhZEB0aGVjYW5u
ZWxscy5vcmcxGjAYBgNVBAMTEUNoYWQgQ2FubmVsbCAoSUUpMQswCQYDVQQGEwJV
UzEXMBUGA1UECBMOTm9ydGggQ2Fyb2xpbmExETAPBgNVBAcTCE1hdHRoZXdzMRMw
EQYDVQQKEwpNZWRDb21tb25zMRMwEQYDVQQLEwpPcGVyYXRpb25zMIGfMA0GCSqG
SIb3DQEBAQUAA4GNADCBiQKBgQDleDGfsYUdqFsCqz3ldrVO5WPEE2apc8wyemC9
GnToUN1eh12s8zG0fFv70GasIzy1F27MFPZA5gsLLA5tClKBMtrZrgQ6tObsNXBU
+/GNN4v6O3dw9VllD21eGSPDtJkA3Z4fMwlemqXTwjlL0Bu+YUei7Xz4ppBdtDDt
sV8VLQIDAQABMA0GCSqGSIb3DQEBBAUAA4GBABjhsRjv/6NzEVTs0XsdhlaFa35S
gc2jKFSafGnd6li+80kS/XZ2sZ7AMSqRonuAH7MF3b98hTl6wcEv1o8agHChtmvr
p4P8pBe5kv5SzmXmEl/lGCBchgA4B5MFc8BN7HZtHIyV5kdb4BwO2opZvLX0K17X
BjrPO5XgXJRh+BXG
-----END CERTIFICATE-----
