Certificate:
    Data:
        Version: 1 (0x0)
        Serial Number: 4 (0x4)
        Signature Algorithm: sha1WithRSAEncryption
        Issuer: CN=MedCommons Certificate Authority/emailAddress=cert@medcommons.net, O=MedCommons, OU=Certification, L=Waterton, ST=Massachusetts, C=US
        Validity
            Not Before: Oct 14 19:02:03 2005 GMT
            Not After : Oct 13 19:02:03 2008 GMT
        Subject: C=US, O=qa, OU=quality-assurance, CN=Bruce Schneier/emailAddress=bsSchneier@cannell.server.us
        Subject Public Key Info:
            Public Key Algorithm: rsaEncryption
            RSA Public Key: (2048 bit)
                Modulus (2048 bit):
                    00:c4:a8:ef:1b:40:4e:a9:3d:82:f9:ab:39:1c:b2:
                    23:c5:d1:60:a2:f0:12:66:dd:27:57:34:f8:c1:5d:
                    93:8f:99:9d:53:9c:fa:4d:2c:f1:61:7a:65:b0:6d:
                    c5:a9:56:2d:a7:9f:fd:0f:71:45:2d:ad:d6:ed:49:
                    4e:07:82:35:f8:29:a0:a8:7f:0e:72:85:b2:24:1e:
                    52:b6:b2:52:75:55:fb:99:43:43:fc:b1:f3:8f:18:
                    33:72:70:03:6b:56:f5:28:f6:e4:c8:73:e5:d5:f6:
                    a2:80:67:d4:df:d0:1d:bc:a3:d4:1e:85:ad:ba:d1:
                    88:6c:fe:b7:6e:b1:85:d6:ba:e1:a0:7f:c4:1d:2a:
                    8c:f6:b7:f5:e8:98:23:68:d3:6f:89:71:36:45:f5:
                    ac:b6:5d:fa:bd:11:42:8d:04:9f:16:eb:46:69:f2:
                    f0:cf:9e:a9:c7:eb:69:65:c7:8a:59:99:5b:01:a8:
                    d2:3f:2b:ee:b3:c6:a9:87:7e:5a:cb:42:aa:c4:0a:
                    06:f4:87:79:29:1f:73:83:f6:fc:e6:f8:b4:81:c3:
                    ee:ea:3a:93:34:36:ab:8d:6d:e0:35:46:af:00:75:
                    95:2f:2b:52:56:5f:b4:6b:95:e2:d5:d3:66:3e:2a:
                    84:24:5a:17:01:d6:25:9e:ab:f9:9b:c9:0d:f2:c0:
                    73:49
                Exponent: 65537 (0x10001)
    Signature Algorithm: sha1WithRSAEncryption
        21:43:01:a3:fd:00:d5:0c:a2:24:ab:58:8b:7e:85:a2:26:64:
        8e:23:b4:48:8d:7d:93:28:08:fc:eb:15:28:7d:32:49:33:ea:
        15:0e:1a:8e:05:7b:f3:c5:ba:73:8f:a3:3a:3f:e4:06:97:f3:
        72:f4:54:3e:65:88:c1:e9:5c:1d:1d:af:83:21:c9:c2:75:cb:
        4a:1f:9c:3b:5d:0b:63:5d:f9:f2:7a:b0:1c:55:6b:e1:1d:33:
        11:b0:9a:cd:72:cf:bd:3e:93:64:f5:90:d6:77:d9:79:fc:60:
        ad:6b:7f:95:f5:5f:db:2e:ac:46:5d:e4:01:c8:9e:c9:2a:30:
        ad:c8
-----BEGIN CERTIFICATE-----
MIIDJDCCAo0CAQQwDQYJKoZIhvcNAQEFBQAwgbQxKTAnBgNVBAMTIE1lZENvbW1v
bnMgQ2VydGlmaWNhdGUgQXV0aG9yaXR5MSIwIAYJKoZIhvcNAQkBFhNjZXJ0QG1l
ZGNvbW1vbnMubmV0MRMwEQYDVQQKEwpNZWRDb21tb25zMRYwFAYDVQQLEw1DZXJ0
aWZpY2F0aW9uMREwDwYDVQQHEwhXYXRlcnRvbjEWMBQGA1UECBMNTWFzc2FjaHVz
ZXR0czELMAkGA1UEBhMCVVMwHhcNMDUxMDE0MTkwMjAzWhcNMDgxMDEzMTkwMjAz
WjB8MQswCQYDVQQGEwJVUzELMAkGA1UEChMCcWExGjAYBgNVBAsTEXF1YWxpdHkt
YXNzdXJhbmNlMRcwFQYDVQQDEw5CcnVjZSBTY2huZWllcjErMCkGCSqGSIb3DQEJ
ARYcYnNTY2huZWllckBjYW5uZWxsLnNlcnZlci51czCCASIwDQYJKoZIhvcNAQEB
BQADggEPADCCAQoCggEBAMSo7xtATqk9gvmrORyyI8XRYKLwEmbdJ1c0+MFdk4+Z
nVOc+k0s8WF6ZbBtxalWLaef/Q9xRS2t1u1JTgeCNfgpoKh/DnKFsiQeUrayUnVV
+5lDQ/yx848YM3JwA2tW9Sj25Mhz5dX2ooBn1N/QHbyj1B6FrbrRiGz+t26xhda6
4aB/xB0qjPa39eiYI2jTb4lxNkX1rLZd+r0RQo0EnxbrRmny8M+eqcfraWXHilmZ
WwGo0j8r7rPGqYd+WstCqsQKBvSHeSkfc4P2/Ob4tIHD7uo6kzQ2q41t4DVGrwB1
lS8rUlZftGuV4tXTZj4qhCRaFwHWJZ6r+ZvJDfLAc0kCAwEAATANBgkqhkiG9w0B
AQUFAAOBgQAhQwGj/QDVDKIkq1iLfoWiJmSOI7RIjX2TKAj86xUofTJJM+oVDhqO
BXvzxbpzj6M6P+QGl/Ny9FQ+ZYjB6VwdHa+DIcnCdctKH5w7XQtjXfnyerAcVWvh
HTMRsJrNcs+9PpNk9ZDWd9l5/GCta3+V9V/bLqxGXeQByJ7JKjCtyA==
-----END CERTIFICATE-----
