Certificate:
    Data:
        Version: 1 (0x0)
        Serial Number: 5 (0x5)
        Signature Algorithm: sha1WithRSAEncryption
        Issuer: CN=MedCommons Certificate Authority/emailAddress=cert@medcommons.net, O=MedCommons, OU=Certification, L=Waterton, ST=Massachusetts, C=US
        Validity
            Not Before: Oct 14 19:35:58 2005 GMT
            Not After : Oct 13 19:35:58 2008 GMT
        Subject: C=US, O=mcpurple01, OU=friends-of-mcpurple01, CN=Chad Christopher Cannell (3283478|123|0|0)/emailAddress=chad@thecannells.org
        Subject Public Key Info:
            Public Key Algorithm: rsaEncryption
            RSA Public Key: (2048 bit)
                Modulus (2048 bit):
                    00:97:76:78:85:40:6b:6e:73:4b:1f:b2:74:8b:48:
                    0f:e7:4e:f1:e4:42:96:23:bc:fe:df:17:72:ce:01:
                    e7:db:0c:3f:71:41:a5:26:22:4a:44:9e:6f:c1:2c:
                    f4:42:90:23:e0:54:af:b0:04:68:5a:b0:48:b5:e5:
                    11:29:5c:7c:31:83:7d:29:8e:34:07:2c:88:04:a0:
                    89:b8:ba:2d:fb:c3:99:0d:4e:a3:99:dc:77:0f:73:
                    de:9f:66:80:fe:c4:21:83:0e:f7:4c:6d:69:c4:4d:
                    5e:04:98:de:50:49:5a:50:7e:04:38:5c:76:70:0d:
                    8f:6f:41:e6:4b:ac:4f:05:cc:95:b0:c2:14:a8:96:
                    a8:2b:62:26:bb:41:02:23:de:a2:fb:72:57:50:3a:
                    8d:9d:fa:f2:d9:73:c6:76:76:24:ae:b1:2c:98:e1:
                    29:13:4c:c9:3b:88:11:5a:bc:57:87:ce:24:8c:b9:
                    8b:95:ea:e0:0c:c9:4d:de:14:94:5e:9e:33:1c:92:
                    85:81:98:dd:41:30:3d:75:e0:3c:c6:d6:13:7c:3b:
                    4e:98:8d:70:61:ea:00:3e:52:62:0a:b1:c5:29:4e:
                    c5:3c:22:29:10:cd:61:01:0c:5e:12:ad:90:70:a2:
                    85:1d:95:f9:31:7a:49:a4:82:87:d1:d1:8e:eb:40:
                    10:cd
                Exponent: 65537 (0x10001)
    Signature Algorithm: sha1WithRSAEncryption
        a0:56:4b:d3:41:91:8d:bb:a2:71:49:fc:ae:1d:05:7d:c1:92:
        08:b4:46:54:0e:45:55:1b:01:af:f0:e3:08:4c:e6:4a:e9:f2:
        aa:21:5e:75:5b:d3:73:07:9c:a4:6b:6f:ed:15:d3:b5:6b:fa:
        d3:35:71:bb:33:ea:60:6c:6f:9e:4e:b8:df:85:de:38:e1:54:
        59:b5:e7:26:38:0d:c5:89:8b:f1:6e:55:8d:1b:f1:0b:57:74:
        a0:8b:cd:e0:1b:c9:1a:8e:cc:f4:cb:fc:61:4a:27:f7:15:29:
        16:bf:fd:5c:03:36:db:9d:f3:6b:12:e1:e1:ab:2e:84:08:10:
        98:e8
-----BEGIN CERTIFICATE-----
MIIDRTCCAq4CAQUwDQYJKoZIhvcNAQEFBQAwgbQxKTAnBgNVBAMTIE1lZENvbW1v
bnMgQ2VydGlmaWNhdGUgQXV0aG9yaXR5MSIwIAYJKoZIhvcNAQkBFhNjZXJ0QG1l
ZGNvbW1vbnMubmV0MRMwEQYDVQQKEwpNZWRDb21tb25zMRYwFAYDVQQLEw1DZXJ0
aWZpY2F0aW9uMREwDwYDVQQHEwhXYXRlcnRvbjEWMBQGA1UECBMNTWFzc2FjaHVz
ZXR0czELMAkGA1UEBhMCVVMwHhcNMDUxMDE0MTkzNTU4WhcNMDgxMDEzMTkzNTU4
WjCBnDELMAkGA1UEBhMCVVMxEzARBgNVBAoTCm1jcHVycGxlMDExHjAcBgNVBAsT
FWZyaWVuZHMtb2YtbWNwdXJwbGUwMTEzMDEGA1UEAxQqQ2hhZCBDaHJpc3RvcGhl
ciBDYW5uZWxsICgzMjgzNDc4fDEyM3wwfDApMSMwIQYJKoZIhvcNAQkBFhRjaGFk
QHRoZWNhbm5lbGxzLm9yZzCCASIwDQYJKoZIhvcNAQEBBQADggEPADCCAQoCggEB
AJd2eIVAa25zSx+ydItID+dO8eRCliO8/t8Xcs4B59sMP3FBpSYiSkSeb8Es9EKQ
I+BUr7AEaFqwSLXlESlcfDGDfSmONAcsiASgibi6LfvDmQ1Oo5ncdw9z3p9mgP7E
IYMO90xtacRNXgSY3lBJWlB+BDhcdnANj29B5kusTwXMlbDCFKiWqCtiJrtBAiPe
ovtyV1A6jZ368tlzxnZ2JK6xLJjhKRNMyTuIEVq8V4fOJIy5i5Xq4AzJTd4UlF6e
MxyShYGY3UEwPXXgPMbWE3w7TpiNcGHqAD5SYgqxxSlOxTwiKRDNYQEMXhKtkHCi
hR2V+TF6SaSCh9HRjutAEM0CAwEAATANBgkqhkiG9w0BAQUFAAOBgQCgVkvTQZGN
u6JxSfyuHQV9wZIItEZUDkVVGwGv8OMITOZK6fKqIV51W9NzB5yka2/tFdO1a/rT
NXG7M+pgbG+eTrjfhd444VRZtecmOA3FiYvxblWNG/ELV3Sgi83gG8kajsz0y/xh
Sif3FSkWv/1cAzbbnfNrEuHhqy6ECBCY6A==
-----END CERTIFICATE-----
