Certificate:
    Data:
        Version: 1 (0x0)
        Serial Number: 6 (0x6)
        Signature Algorithm: sha1WithRSAEncryption
        Issuer: CN=MedCommons Certificate Authority/emailAddress=cert@medcommons.net, O=MedCommons, OU=Certification, L=Waterton, ST=Massachusetts, C=US
        Validity
            Not Before: Oct 16 16:59:35 2005 GMT
            Not After : Oct 15 16:59:35 2008 GMT
        Subject: C=US, O=medcommons, OU=operations, CN=bill donner/emailAddress=billdonner@medcommons.net
        Subject Public Key Info:
            Public Key Algorithm: rsaEncryption
            RSA Public Key: (2048 bit)
                Modulus (2048 bit):
                    00:b2:c4:a5:71:ef:4b:f8:41:9d:21:4b:80:6b:17:
                    fd:6b:5f:42:bc:43:56:2d:bd:da:0e:24:b9:85:01:
                    5c:70:64:df:34:8c:a7:50:0a:d0:53:0f:15:cb:21:
                    88:13:6d:2a:2c:c7:84:b6:58:9a:64:d2:3a:d0:10:
                    8c:18:90:c4:f8:d2:f4:43:6c:9b:cb:dc:5a:5a:53:
                    d4:77:95:78:19:f2:d8:26:1b:ca:b6:70:09:6b:b8:
                    4b:d3:40:38:45:25:93:73:cc:3f:19:bc:17:7d:6d:
                    2f:05:22:49:7d:c8:40:93:a2:d4:bb:9b:9d:b8:56:
                    99:7a:69:3a:4b:46:7f:75:f9:19:9e:d9:31:0f:c0:
                    a5:66:99:48:8a:76:42:ba:5a:07:0f:63:3f:be:41:
                    6b:4d:2d:ad:86:25:8b:40:c0:33:df:50:45:14:1c:
                    d5:4c:12:51:0f:02:9f:bc:f0:17:0a:d4:26:50:80:
                    8c:28:41:b8:ac:81:47:a5:d1:c0:b9:14:3e:7d:f7:
                    74:cb:7f:e1:a6:8d:d4:69:e6:27:76:ce:b7:96:93:
                    c2:f0:db:bf:82:08:f0:05:08:76:25:e7:79:f7:3e:
                    f2:1e:3d:4c:68:b2:8d:db:91:11:ca:6b:da:ce:a3:
                    5d:f3:91:3e:53:82:ad:54:30:c0:c7:41:b6:e6:26:
                    fc:77
                Exponent: 65537 (0x10001)
    Signature Algorithm: sha1WithRSAEncryption
        02:4f:26:e2:5b:98:2a:5f:9b:b2:61:82:6e:75:76:a6:13:b1:
        42:b3:22:85:e5:65:5b:b5:da:8d:5e:91:3b:89:cc:a3:0d:44:
        a6:c6:ab:b3:54:b9:f9:35:04:ad:da:45:7c:67:f0:02:87:36:
        1e:6d:ef:84:c1:08:41:eb:e4:d8:62:45:33:be:79:e3:cb:bf:
        9b:a0:67:36:93:f2:13:b6:69:cf:6b:47:a0:cc:6b:c8:c8:39:
        46:dd:aa:5f:b9:ef:5e:50:0c:37:3c:13:b6:9e:25:a2:79:6b:
        69:fb:1c:a7:e3:15:fd:f6:4b:90:71:cb:91:23:31:69:18:5c:
        82:80
-----BEGIN CERTIFICATE-----
MIIDHzCCAogCAQYwDQYJKoZIhvcNAQEFBQAwgbQxKTAnBgNVBAMTIE1lZENvbW1v
bnMgQ2VydGlmaWNhdGUgQXV0aG9yaXR5MSIwIAYJKoZIhvcNAQkBFhNjZXJ0QG1l
ZGNvbW1vbnMubmV0MRMwEQYDVQQKEwpNZWRDb21tb25zMRYwFAYDVQQLEw1DZXJ0
aWZpY2F0aW9uMREwDwYDVQQHEwhXYXRlcnRvbjEWMBQGA1UECBMNTWFzc2FjaHVz
ZXR0czELMAkGA1UEBhMCVVMwHhcNMDUxMDE2MTY1OTM1WhcNMDgxMDE1MTY1OTM1
WjB3MQswCQYDVQQGEwJVUzETMBEGA1UEChMKbWVkY29tbW9uczETMBEGA1UECxMK
b3BlcmF0aW9uczEUMBIGA1UEAxMLYmlsbCBkb25uZXIxKDAmBgkqhkiG9w0BCQEW
GWJpbGxkb25uZXJAbWVkY29tbW9ucy5uZXQwggEiMA0GCSqGSIb3DQEBAQUAA4IB
DwAwggEKAoIBAQCyxKVx70v4QZ0hS4BrF/1rX0K8Q1YtvdoOJLmFAVxwZN80jKdQ
CtBTDxXLIYgTbSosx4S2WJpk0jrQEIwYkMT40vRDbJvL3FpaU9R3lXgZ8tgmG8q2
cAlruEvTQDhFJZNzzD8ZvBd9bS8FIkl9yECTotS7m524Vpl6aTpLRn91+Rme2TEP
wKVmmUiKdkK6WgcPYz++QWtNLa2GJYtAwDPfUEUUHNVMElEPAp+88BcK1CZQgIwo
QbisgUel0cC5FD5993TLf+GmjdRp5id2zreWk8Lw27+CCPAFCHYl53n3PvIePUxo
so3bkRHKa9rOo13zkT5Tgq1UMMDHQbbmJvx3AgMBAAEwDQYJKoZIhvcNAQEFBQAD
gYEAAk8m4luYKl+bsmGCbnV2phOxQrMiheVlW7XajV6RO4nMow1Epsars1S5+TUE
rdpFfGfwAoc2Hm3vhMEIQevk2GJFM75548u/m6BnNpPyE7Zpz2tHoMxryMg5Rt2q
X7nvXlAMNzwTtp4lonlrafscp+MV/fZLkHHLkSMxaRhcgoA=
-----END CERTIFICATE-----
