Certificate:
    Data:
        Version: 1 (0x0)
        Serial Number: 7 (0x7)
        Signature Algorithm: sha1WithRSAEncryption
        Issuer: CN=MedCommons Certificate Authority/emailAddress=cert@medcommons.net, O=MedCommons, OU=Certification, L=Waterton, ST=Massachusetts, C=US
        Validity
            Not Before: Oct 16 17:07:52 2005 GMT
            Not After : Oct 15 17:07:52 2008 GMT
        Subject: C=US, O=qa, OU=quality-assurance, CN=bill donner/emailAddress=billdonner@gmail.com
        Subject Public Key Info:
            Public Key Algorithm: rsaEncryption
            RSA Public Key: (2048 bit)
                Modulus (2048 bit):
                    00:c6:3e:62:24:3e:30:57:2d:d8:7e:29:33:60:25:
                    4d:f7:da:7e:cb:1c:75:38:c3:a0:96:0f:03:6f:4d:
                    3e:91:75:e7:d1:00:d2:8a:03:d3:5e:bc:63:5b:b8:
                    dd:6d:2c:27:44:ef:43:56:ae:c0:e2:01:5d:fd:1b:
                    45:24:ae:7c:f4:d5:26:8e:69:7c:36:a8:94:e0:26:
                    c6:63:cd:e2:0f:54:5d:1a:ef:67:f7:17:d9:d8:78:
                    1f:59:60:fb:c4:19:fc:71:3c:27:c2:7c:90:18:09:
                    27:a5:24:ca:2b:91:e2:04:4a:81:e7:b2:49:5f:b5:
                    85:2f:8a:d4:eb:6b:49:9e:5a:ee:c7:07:59:53:1d:
                    87:27:e8:6d:17:fb:94:c7:68:27:c5:ec:84:3c:03:
                    fe:36:5c:30:c0:6a:5d:05:64:58:a2:e7:31:9d:f4:
                    3c:27:4e:f5:d6:0f:16:c2:96:57:49:68:e6:4e:8c:
                    ef:f5:d7:b4:7a:62:b5:62:e9:db:9a:b6:40:dd:76:
                    c3:5c:8f:81:66:3e:02:79:ae:8f:bf:3b:2b:87:e5:
                    44:e7:b2:f2:de:54:60:f6:99:05:02:b5:5b:e2:b6:
                    69:13:a2:d8:60:01:b2:31:84:07:ce:72:43:e9:f8:
                    d8:bd:90:12:f0:cd:ba:ea:08:40:51:86:31:1b:32:
                    11:e1
                Exponent: 65537 (0x10001)
    Signature Algorithm: sha1WithRSAEncryption
        bd:09:6d:81:6b:dc:82:a0:72:28:7d:29:f1:70:e6:b6:d2:de:
        0a:0f:b0:72:58:74:46:29:9e:09:f6:a5:42:ac:02:f8:eb:79:
        ba:0a:73:0f:2b:57:46:12:98:a5:55:78:7e:d7:a9:6e:51:95:
        82:a3:99:bc:b5:44:4e:0b:35:c6:dd:af:99:85:d4:79:cb:7c:
        e4:ae:c5:6f:91:6c:a4:1d:ae:b7:48:40:6c:ae:b8:97:5a:e3:
        d8:45:c2:d8:9b:62:a6:3b:25:e9:fe:dd:4a:6c:f8:64:6d:28:
        cc:99:cb:a9:98:01:60:b1:97:76:cb:bb:78:20:fa:0b:ef:8a:
        7b:44
-----BEGIN CERTIFICATE-----
MIIDGTCCAoICAQcwDQYJKoZIhvcNAQEFBQAwgbQxKTAnBgNVBAMTIE1lZENvbW1v
bnMgQ2VydGlmaWNhdGUgQXV0aG9yaXR5MSIwIAYJKoZIhvcNAQkBFhNjZXJ0QG1l
ZGNvbW1vbnMubmV0MRMwEQYDVQQKEwpNZWRDb21tb25zMRYwFAYDVQQLEw1DZXJ0
aWZpY2F0aW9uMREwDwYDVQQHEwhXYXRlcnRvbjEWMBQGA1UECBMNTWFzc2FjaHVz
ZXR0czELMAkGA1UEBhMCVVMwHhcNMDUxMDE2MTcwNzUyWhcNMDgxMDE1MTcwNzUy
WjBxMQswCQYDVQQGEwJVUzELMAkGA1UEChMCcWExGjAYBgNVBAsTEXF1YWxpdHkt
YXNzdXJhbmNlMRQwEgYDVQQDEwtiaWxsIGRvbm5lcjEjMCEGCSqGSIb3DQEJARYU
YmlsbGRvbm5lckBnbWFpbC5jb20wggEiMA0GCSqGSIb3DQEBAQUAA4IBDwAwggEK
AoIBAQDGPmIkPjBXLdh+KTNgJU332n7LHHU4w6CWDwNvTT6RdefRANKKA9NevGNb
uN1tLCdE70NWrsDiAV39G0Ukrnz01SaOaXw2qJTgJsZjzeIPVF0a72f3F9nYeB9Z
YPvEGfxxPCfCfJAYCSelJMorkeIESoHnsklftYUvitTra0meWu7HB1lTHYcn6G0X
+5THaCfF7IQ8A/42XDDAal0FZFii5zGd9DwnTvXWDxbClldJaOZOjO/117R6YrVi
6duatkDddsNcj4FmPgJ5ro+/OyuH5UTnsvLeVGD2mQUCtVvitmkTothgAbIxhAfO
ckPp+Ni9kBLwzbrqCEBRhjEbMhHhAgMBAAEwDQYJKoZIhvcNAQEFBQADgYEAvQlt
gWvcgqByKH0p8XDmttLeCg+wclh0RimeCfalQqwC+Ot5ugpzDytXRhKYpVV4ftep
blGVgqOZvLVETgs1xt2vmYXUect85K7Fb5FspB2ut0hAbK64l1rj2EXC2Jtipjsl
6f7dSmz4ZG0ozJnLqZgBYLGXdsu7eCD6C++Ke0Q=
-----END CERTIFICATE-----
