Certificate:
    Data:
        Version: 1 (0x0)
        Serial Number: 10 (0xa)
        Signature Algorithm: sha1WithRSAEncryption
        Issuer: CN=MedCommons Certificate Authority/emailAddress=cert@medcommons.net, O=MedCommons, OU=Certification, L=Waterton, ST=Massachusetts, C=US
        Validity
            Not Before: Oct 20 00:55:42 2005 GMT
            Not After : Oct 19 00:55:42 2008 GMT
        Subject: C=US, O=private, OU=double-super-secret-group, CN=Dr. John A. Hopps/emailAddress=chad@thecannells.org
        Subject Public Key Info:
            Public Key Algorithm: rsaEncryption
            RSA Public Key: (2048 bit)
                Modulus (2048 bit):
                    00:c6:41:e7:ee:09:34:2e:6a:57:4e:20:36:ff:d4:
                    06:91:a9:8e:d9:75:ad:6a:a9:b3:7a:cb:34:e2:7f:
                    12:0b:61:06:39:dc:ab:55:b5:91:eb:c4:94:67:76:
                    23:fa:3c:19:ec:3f:4e:28:f4:67:19:0d:0a:4e:6e:
                    2a:2c:a3:1f:d3:4b:6b:e3:39:ac:0a:b9:20:c5:94:
                    a5:d4:c8:5a:87:17:26:f2:a8:0f:08:a6:86:de:79:
                    3e:44:d5:41:d6:f7:92:d7:24:a7:04:56:74:4e:86:
                    c0:ba:32:a9:21:c3:02:6e:a2:dd:23:7a:6f:7a:3e:
                    3a:5a:6a:81:9d:a2:02:67:1f:cc:3a:47:4f:89:fb:
                    37:11:e5:63:bd:7d:3e:07:4f:23:01:07:e2:17:50:
                    ce:07:f5:f9:89:f3:ee:69:1b:64:d4:66:67:74:67:
                    50:e6:78:e3:f7:3a:ae:2b:2c:60:e9:75:63:ed:15:
                    f8:97:5b:ce:d3:a5:ce:b7:01:bb:ab:8d:a7:52:48:
                    91:9e:95:b6:b3:12:31:ab:4a:aa:2e:0f:d9:8d:04:
                    f4:9b:be:ef:c4:44:05:59:99:7a:62:f1:48:6a:83:
                    6b:e6:06:9b:71:4b:3b:08:6d:2c:e3:bb:e8:99:1d:
                    32:64:2a:e1:87:d2:3e:dd:b5:56:4c:b9:fe:bb:13:
                    6c:27
                Exponent: 65537 (0x10001)
    Signature Algorithm: sha1WithRSAEncryption
        96:a7:6b:83:ed:ed:e7:ec:bf:f1:fc:e3:7f:15:7f:97:df:d4:
        d5:b5:a6:ff:78:92:b2:bc:7d:a1:3d:b0:d0:e9:85:b3:32:71:
        16:4a:af:d4:96:c5:1b:c0:3e:e3:11:6f:e7:b7:04:4f:42:1a:
        30:66:01:3d:f0:f8:70:f8:68:47:88:ca:d1:97:7b:bc:ea:ed:
        96:f0:15:7b:63:dd:bc:0d:4c:9f:ec:b1:88:b2:17:fb:46:c7:
        2d:c7:8d:bc:90:85:df:ef:a0:ad:e6:46:e9:93:3e:9a:1f:a4:
        bb:4f:64:6c:68:83:03:58:d3:c5:25:6e:eb:7d:27:82:30:59:
        18:9b
-----BEGIN CERTIFICATE-----
MIIDLTCCApYCAQowDQYJKoZIhvcNAQEFBQAwgbQxKTAnBgNVBAMTIE1lZENvbW1v
bnMgQ2VydGlmaWNhdGUgQXV0aG9yaXR5MSIwIAYJKoZIhvcNAQkBFhNjZXJ0QG1l
ZGNvbW1vbnMubmV0MRMwEQYDVQQKEwpNZWRDb21tb25zMRYwFAYDVQQLEw1DZXJ0
aWZpY2F0aW9uMREwDwYDVQQHEwhXYXRlcnRvbjEWMBQGA1UECBMNTWFzc2FjaHVz
ZXR0czELMAkGA1UEBhMCVVMwHhcNMDUxMDIwMDA1NTQyWhcNMDgxMDE5MDA1NTQy
WjCBhDELMAkGA1UEBhMCVVMxEDAOBgNVBAoTB3ByaXZhdGUxIjAgBgNVBAsTGWRv
dWJsZS1zdXBlci1zZWNyZXQtZ3JvdXAxGjAYBgNVBAMTEURyLiBKb2huIEEuIEhv
cHBzMSMwIQYJKoZIhvcNAQkBFhRjaGFkQHRoZWNhbm5lbGxzLm9yZzCCASIwDQYJ
KoZIhvcNAQEBBQADggEPADCCAQoCggEBAMZB5+4JNC5qV04gNv/UBpGpjtl1rWqp
s3rLNOJ/EgthBjncq1W1kevElGd2I/o8Gew/Tij0ZxkNCk5uKiyjH9NLa+M5rAq5
IMWUpdTIWocXJvKoDwimht55PkTVQdb3ktckpwRWdE6GwLoyqSHDAm6i3SN6b3o+
OlpqgZ2iAmcfzDpHT4n7NxHlY719PgdPIwEH4hdQzgf1+Ynz7mkbZNRmZ3RnUOZ4
4/c6rissYOl1Y+0V+JdbztOlzrcBu6uNp1JIkZ6VtrMSMatKqi4P2Y0E9Ju+78RE
BVmZemLxSGqDa+YGm3FLOwhtLOO76JkdMmQq4YfSPt21Vky5/rsTbCcCAwEAATAN
BgkqhkiG9w0BAQUFAAOBgQCWp2uD7e3n7L/x/ON/FX+X39TVtab/eJKyvH2hPbDQ
6YWzMnEWSq/UlsUbwD7jEW/ntwRPQhowZgE98Phw+GhHiMrRl3u86u2W8BV7Y928
DUyf7LGIshf7Rsctx428kIXf76Ct5kbpkz6aH6S7T2RsaIMDWNPFJW7rfSeCMFkY
mw==
-----END CERTIFICATE-----
