Certificate:
    Data:
        Version: 1 (0x0)
        Serial Number: 9 (0x9)
        Signature Algorithm: sha1WithRSAEncryption
        Issuer: CN=MedCommons Certificate Authority/emailAddress=cert@medcommons.net, O=MedCommons, OU=Certification, L=Waterton, ST=Massachusetts, C=US
        Validity
            Not Before: Oct 20 00:46:52 2005 GMT
            Not After : Oct 19 00:46:52 2008 GMT
        Subject: C=US, O=qa, OU=quality-assurance, CN=Mr. Chad C. Cannell/emailAddress=chad@cannell.server.us
        Subject Public Key Info:
            Public Key Algorithm: rsaEncryption
            RSA Public Key: (2048 bit)
                Modulus (2048 bit):
                    00:c6:c6:c2:14:d7:53:82:c6:92:45:0e:c1:7e:d1:
                    57:b3:a2:3f:e5:78:bb:ae:46:ab:4e:f4:b5:0a:87:
                    1d:ef:4d:d3:7a:3a:46:e7:ff:11:53:3e:67:69:6e:
                    c2:57:1f:e7:ef:77:9c:bb:f1:5b:1d:6a:5f:e8:53:
                    4b:e8:4b:0d:a8:f2:22:f7:b0:b6:dc:db:82:a1:1a:
                    98:55:10:b8:c9:7e:33:1c:d3:ed:79:57:0b:db:5a:
                    34:9e:1a:67:3e:ca:5d:72:f5:1e:d2:eb:9a:1c:4d:
                    cd:2c:f3:fc:a8:e9:9e:57:ce:75:5d:fd:4a:c9:77:
                    e0:4d:17:3d:23:fc:bf:06:aa:13:ca:b7:24:b3:3f:
                    08:04:2b:53:e2:58:66:16:d2:5b:6b:45:68:39:65:
                    1a:d9:fe:94:73:e1:3d:28:98:c2:eb:39:7c:1d:66:
                    1a:2a:c9:05:67:02:a4:43:25:eb:75:37:8a:50:1b:
                    38:7f:3d:09:e1:bf:f3:79:fb:cc:12:2f:eb:8d:aa:
                    6d:0a:9f:23:35:fe:dc:dc:80:46:79:3f:11:77:8e:
                    9d:d3:8a:cd:de:55:dc:8d:27:e5:fb:b8:e0:07:3f:
                    fc:bd:1f:dc:83:3d:6b:4c:73:f3:32:4a:19:dc:73:
                    5a:9b:e5:df:58:f8:1c:bf:f1:72:81:30:48:75:2b:
                    e6:f1
                Exponent: 65537 (0x10001)
    Signature Algorithm: sha1WithRSAEncryption
        39:73:02:2d:19:b4:f4:8a:18:68:18:07:2c:43:d0:92:eb:74:
        85:2d:ab:df:11:5c:11:e6:a9:19:4c:de:fd:2e:b5:2d:5e:4c:
        d5:f2:89:f5:6f:05:48:ff:10:bb:1c:f7:8b:0f:5a:30:b9:d4:
        08:99:08:57:3c:32:ec:98:4f:4a:12:65:05:1d:e5:83:08:5e:
        0f:aa:43:01:81:aa:6d:56:21:85:85:a6:51:12:b8:3a:b5:a3:
        25:4c:df:0c:70:9d:37:f3:2c:98:4d:27:08:2a:c0:1f:72:5a:
        f5:a6:1b:3e:fb:5d:50:21:ea:bf:b9:ad:77:95:63:9f:61:f9:
        3f:5e
-----BEGIN CERTIFICATE-----
MIIDIzCCAowCAQkwDQYJKoZIhvcNAQEFBQAwgbQxKTAnBgNVBAMTIE1lZENvbW1v
bnMgQ2VydGlmaWNhdGUgQXV0aG9yaXR5MSIwIAYJKoZIhvcNAQkBFhNjZXJ0QG1l
ZGNvbW1vbnMubmV0MRMwEQYDVQQKEwpNZWRDb21tb25zMRYwFAYDVQQLEw1DZXJ0
aWZpY2F0aW9uMREwDwYDVQQHEwhXYXRlcnRvbjEWMBQGA1UECBMNTWFzc2FjaHVz
ZXR0czELMAkGA1UEBhMCVVMwHhcNMDUxMDIwMDA0NjUyWhcNMDgxMDE5MDA0NjUy
WjB7MQswCQYDVQQGEwJVUzELMAkGA1UEChMCcWExGjAYBgNVBAsTEXF1YWxpdHkt
YXNzdXJhbmNlMRwwGgYDVQQDExNNci4gQ2hhZCBDLiBDYW5uZWxsMSUwIwYJKoZI
hvcNAQkBFhZjaGFkQGNhbm5lbGwuc2VydmVyLnVzMIIBIjANBgkqhkiG9w0BAQEF
AAOCAQ8AMIIBCgKCAQEAxsbCFNdTgsaSRQ7BftFXs6I/5Xi7rkarTvS1Cocd703T
ejpG5/8RUz5naW7CVx/n73ecu/FbHWpf6FNL6EsNqPIi97C23NuCoRqYVRC4yX4z
HNPteVcL21o0nhpnPspdcvUe0uuaHE3NLPP8qOmeV851Xf1KyXfgTRc9I/y/BqoT
yrcksz8IBCtT4lhmFtJba0VoOWUa2f6Uc+E9KJjC6zl8HWYaKskFZwKkQyXrdTeK
UBs4fz0J4b/zefvMEi/rjaptCp8jNf7c3IBGeT8Rd46d04rN3lXcjSfl+7jgBz/8
vR/cgz1rTHPzMkoZ3HNam+XfWPgcv/FygTBIdSvm8QIDAQABMA0GCSqGSIb3DQEB
BQUAA4GBADlzAi0ZtPSKGGgYByxD0JLrdIUtq98RXBHmqRlM3v0utS1eTNXyifVv
BUj/ELsc94sPWjC51AiZCFc8MuyYT0oSZQUd5YMIXg+qQwGBqm1WIYWFplESuDq1
oyVM3wxwnTfzLJhNJwgqwB9yWvWmGz77XVAh6r+5rXeVY59h+T9e
-----END CERTIFICATE-----
