Certificate:
    Data:
        Version: 1 (0x0)
        Serial Number: 8 (0x8)
        Signature Algorithm: sha1WithRSAEncryption
        Issuer: CN=MedCommons Certificate Authority/emailAddress=cert@medcommons.net, O=MedCommons, OU=Certification, L=Waterton, ST=Massachusetts, C=US
        Validity
            Not Before: Oct 16 17:13:51 2005 GMT
            Not After : Oct 15 17:13:51 2008 GMT
        Subject: C=US, O=private, OU=double-super-secret-group, CN=bill donner/emailAddress=billdonner@medcommons.org
        Subject Public Key Info:
            Public Key Algorithm: rsaEncryption
            RSA Public Key: (2048 bit)
                Modulus (2048 bit):
                    00:d8:d1:67:1d:e3:bb:12:6b:86:bd:7c:52:8a:b2:
                    a6:66:ce:b0:b1:30:ff:40:6f:c4:c9:77:57:36:f5:
                    da:40:00:7a:2c:ca:6d:18:b5:3d:9a:63:1c:6c:a8:
                    28:df:5b:ba:a2:b9:80:1b:a5:d1:27:ce:22:1a:a9:
                    f9:4a:5a:8e:f8:13:39:18:9e:11:08:0f:be:1a:c0:
                    2b:03:7c:b3:ba:a1:01:3b:16:ce:fd:cf:97:1c:6c:
                    3d:5f:9c:de:0d:3f:a2:12:40:79:36:40:7f:10:b4:
                    d2:28:04:12:b2:8a:11:ee:7d:be:5a:d9:9b:c4:8c:
                    ad:25:25:82:90:0b:25:ea:74:7e:70:1c:a4:1a:4d:
                    d8:a5:f1:40:b6:04:e4:59:64:c9:fd:67:bf:5c:36:
                    07:e9:c2:ee:94:32:fc:fc:70:5d:c4:33:bd:a1:b2:
                    3e:ec:79:c5:0f:fa:10:3e:ea:c0:db:57:1a:ec:a0:
                    45:6a:1f:95:bc:b3:23:d9:de:18:fd:4b:eb:37:cc:
                    4f:c5:db:da:15:8c:66:d1:11:9f:6b:77:06:6e:1d:
                    be:6b:c8:5f:bd:19:af:89:c1:f7:e0:03:f7:c3:b5:
                    53:47:a1:95:f7:b1:2b:7f:a4:91:99:65:8f:bf:37:
                    1d:a2:81:2a:7d:08:12:91:0b:02:e0:e5:7f:50:0f:
                    61:bd
                Exponent: 65537 (0x10001)
    Signature Algorithm: sha1WithRSAEncryption
        ab:78:1c:52:59:89:0b:a4:cf:21:42:71:be:81:a3:f5:7b:a0:
        f3:64:9f:8d:d4:43:b8:5c:84:26:8e:bb:37:e5:d2:d3:25:dc:
        93:03:c1:71:f9:e7:63:62:98:33:a0:fb:44:f1:52:2b:f9:6c:
        57:fc:f4:c5:dd:be:05:c0:de:90:86:6e:1d:86:8b:f5:e3:02:
        72:9b:08:e2:89:29:6a:e6:66:56:07:37:2f:93:4c:e3:64:ea:
        1a:d7:c9:ee:e5:64:f5:f4:24:bb:6e:9c:3b:60:94:69:c7:f8:
        20:81:04:db:9e:ef:54:52:6c:77:05:d8:79:8f:3a:22:f9:5e:
        59:16
-----BEGIN CERTIFICATE-----
MIIDLDCCApUCAQgwDQYJKoZIhvcNAQEFBQAwgbQxKTAnBgNVBAMTIE1lZENvbW1v
bnMgQ2VydGlmaWNhdGUgQXV0aG9yaXR5MSIwIAYJKoZIhvcNAQkBFhNjZXJ0QG1l
ZGNvbW1vbnMubmV0MRMwEQYDVQQKEwpNZWRDb21tb25zMRYwFAYDVQQLEw1DZXJ0
aWZpY2F0aW9uMREwDwYDVQQHEwhXYXRlcnRvbjEWMBQGA1UECBMNTWFzc2FjaHVz
ZXR0czELMAkGA1UEBhMCVVMwHhcNMDUxMDE2MTcxMzUxWhcNMDgxMDE1MTcxMzUx
WjCBgzELMAkGA1UEBhMCVVMxEDAOBgNVBAoTB3ByaXZhdGUxIjAgBgNVBAsTGWRv
dWJsZS1zdXBlci1zZWNyZXQtZ3JvdXAxFDASBgNVBAMTC2JpbGwgZG9ubmVyMSgw
JgYJKoZIhvcNAQkBFhliaWxsZG9ubmVyQG1lZGNvbW1vbnMub3JnMIIBIjANBgkq
hkiG9w0BAQEFAAOCAQ8AMIIBCgKCAQEA2NFnHeO7EmuGvXxSirKmZs6wsTD/QG/E
yXdXNvXaQAB6LMptGLU9mmMcbKgo31u6ormAG6XRJ84iGqn5SlqO+BM5GJ4RCA++
GsArA3yzuqEBOxbO/c+XHGw9X5zeDT+iEkB5NkB/ELTSKAQSsooR7n2+WtmbxIyt
JSWCkAsl6nR+cBykGk3YpfFAtgTkWWTJ/We/XDYH6cLulDL8/HBdxDO9obI+7HnF
D/oQPurA21ca7KBFah+VvLMj2d4Y/UvrN8xPxdvaFYxm0RGfa3cGbh2+a8hfvRmv
icH34AP3w7VTR6GV97Erf6SRmWWPvzcdooEqfQgSkQsC4OV/UA9hvQIDAQABMA0G
CSqGSIb3DQEBBQUAA4GBAKt4HFJZiQukzyFCcb6Bo/V7oPNkn43UQ7hchCaOuzfl
0tMl3JMDwXH552NimDOg+0TxUiv5bFf89MXdvgXA3pCGbh2Gi/XjAnKbCOKJKWrm
ZlYHNy+TTONk6hrXye7lZPX0JLtunDtglGnH+CCBBNue71RSbHcF2HmPOiL5XlkW
-----END CERTIFICATE-----
